; Function Attrs: nounwind uwtable
define ptr @l_Lean_IR_ExplicitRC_addInc(ptr noundef readonly captures(none) %0, ptr noundef %1, ptr noundef %2, ptr noundef %3) local_unnamed_addr #0 {
  %5 = tail call ptr @l_Lean_IR_ExplicitRC_getVarInfo(ptr noundef %0, ptr noundef %1)
  %6 = ptrtoint ptr %3 to i64
  %7 = and i64 %6, 1
  %.not = icmp eq i64 %7, 0
  br i1 %.not, label %lean_nat_eq.exit, label %8, !prof !12

8:                                                ; preds = %4
  %9 = icmp eq ptr %3, inttoptr (i64 1 to ptr)
  br i1 %9, label %32, label %11

lean_nat_eq.exit:                                 ; preds = %4
  %10 = tail call zeroext i1 @lean_nat_big_eq(ptr noundef %3, ptr noundef nonnull inttoptr (i64 1 to ptr)) #6
  br i1 %10, label %32, label %11

11:                                               ; preds = %8, %lean_nat_eq.exit
  %12 = getelementptr inbounds nuw i8, ptr %5, i64 9
  %13 = load i8, ptr %12, align 1, !tbaa !15
  %14 = ptrtoint ptr %5 to i64
  %15 = and i64 %14, 1
  %.not33 = icmp eq i64 %15, 0
  br i1 %.not33, label %16, label %lean_dec.exit24

16:                                               ; preds = %11
  %17 = load i32, ptr %5, align 4, !tbaa !8
  %18 = icmp sgt i32 %17, 1
  br i1 %18, label %19, label %21, !prof !11

19:                                               ; preds = %16
  %20 = add nsw i32 %17, -1
  store i32 %20, ptr %5, align 4, !tbaa !8
  br label %lean_dec.exit24

21:                                               ; preds = %16
  %.not.i = icmp eq i32 %17, 0
  br i1 %.not.i, label %lean_dec.exit24, label %22

22:                                               ; preds = %21
  tail call void @lean_dec_ref_cold(ptr noundef nonnull %5) #6
  br label %lean_dec.exit24

lean_dec.exit24:                                  ; preds = %22, %21, %19, %11
  tail call void @lean_inc_heartbeat() #6
  %23 = tail call noalias ptr @mi_malloc_small(i64 noundef 40) #6
  %24 = icmp eq ptr %23, null
  br i1 %24, label %25, label %lean_alloc_ctor.exit

25:                                               ; preds = %lean_dec.exit24
  tail call void @lean_internal_panic_out_of_memory() #7
  unreachable

lean_alloc_ctor.exit:                             ; preds = %lean_dec.exit24
  %26 = getelementptr inbounds nuw i8, ptr %23, i64 4
  %27 = getelementptr inbounds nuw i8, ptr %23, i64 32
  store i64 1, ptr %27, align 8, !tbaa !13
  store i32 1, ptr %23, align 4, !tbaa !8
  store i32 100859944, ptr %26, align 4
  %28 = getelementptr inbounds nuw i8, ptr %23, i64 8
  store ptr %1, ptr %28, align 8, !tbaa !4
  %29 = getelementptr inbounds nuw i8, ptr %23, i64 16
  store ptr %3, ptr %29, align 8, !tbaa !4
  %30 = getelementptr inbounds nuw i8, ptr %23, i64 24
  store ptr %2, ptr %30, align 8, !tbaa !4
  %31 = getelementptr inbounds nuw i8, ptr %23, i64 33
  store i8 %13, ptr %31, align 1, !tbaa !15
  br label %lean_dec.exit

32:                                               ; preds = %8, %lean_nat_eq.exit
  %33 = ptrtoint ptr %5 to i64
  %34 = and i64 %33, 1
  %.not31 = icmp eq i64 %34, 0
  br i1 %.not31, label %35, label %lean_dec.exit23

35:                                               ; preds = %32
  %36 = load i32, ptr %5, align 4, !tbaa !8
  %37 = icmp sgt i32 %36, 1
  br i1 %37, label %38, label %40, !prof !11

38:                                               ; preds = %35
  %39 = add nsw i32 %36, -1
  store i32 %39, ptr %5, align 4, !tbaa !8
  br label %lean_dec.exit23

40:                                               ; preds = %35
  %.not.i25 = icmp eq i32 %36, 0
  br i1 %.not.i25, label %lean_dec.exit23, label %41

41:                                               ; preds = %40
  tail call void @lean_dec_ref_cold(ptr noundef nonnull %5) #6
  br label %lean_dec.exit23

lean_dec.exit23:                                  ; preds = %41, %40, %38, %32
  br i1 %.not, label %42, label %lean_dec.exit22

42:                                               ; preds = %lean_dec.exit23
  %43 = load i32, ptr %3, align 4, !tbaa !8
  %44 = icmp sgt i32 %43, 1
  br i1 %44, label %45, label %47, !prof !11

45:                                               ; preds = %42
  %46 = add nsw i32 %43, -1
  store i32 %46, ptr %3, align 4, !tbaa !8
  br label %lean_dec.exit22

47:                                               ; preds = %42
  %.not.i27 = icmp eq i32 %43, 0
  br i1 %.not.i27, label %lean_dec.exit22, label %48

48:                                               ; preds = %47
  tail call void @lean_dec_ref_cold(ptr noundef nonnull %3) #6
  br label %lean_dec.exit22

lean_dec.exit22:                                  ; preds = %48, %47, %45, %lean_dec.exit23
  %49 = ptrtoint ptr %1 to i64
  %50 = and i64 %49, 1
  %.not32 = icmp eq i64 %50, 0
  br i1 %.not32, label %51, label %lean_dec.exit

51:                                               ; preds = %lean_dec.exit22
  %52 = load i32, ptr %1, align 4, !tbaa !8
  %53 = icmp sgt i32 %52, 1
  br i1 %53, label %54, label %56, !prof !11

54:                                               ; preds = %51
  %55 = add nsw i32 %52, -1
  store i32 %55, ptr %1, align 4, !tbaa !8
  br label %lean_dec.exit

56:                                               ; preds = %51
  %.not.i29 = icmp eq i32 %52, 0
  br i1 %.not.i29, label %lean_dec.exit, label %57

57:                                               ; preds = %56
  tail call void @lean_dec_ref_cold(ptr noundef nonnull %1) #6
  br label %lean_dec.exit

lean_dec.exit:                                    ; preds = %lean_dec.exit22, %54, %56, %57, %lean_alloc_ctor.exit
  %.0 = phi ptr [ %23, %lean_alloc_ctor.exit ], [ %2, %57 ], [ %2, %56 ], [ %2, %54 ], [ %2, %lean_dec.exit22 ]
  ret ptr %.0
}